target datalayout = "e-m:e-p270:32:32-p271:32:32-p272:64:64-i64:64-i128:128-f80:128-n8:16:32:64-S128"
target triple = "x86_64-pc-linux-gnu"

%struct.lean_object = type { i32, i32 }

@l___private_Lean_Elab_Declaration_0__Lean_Elab_Command_setDefName___closed__4 = internal global ptr null, align 8

; Function Attrs: inlinehint nounwind uwtable
define internal ptr @lean_box(i64 noundef %0) #0 {
  %2 = alloca i64, align 8
  store i64 %0, ptr %2, align 8, !tbaa !4
  %3 = load i64, ptr %2, align 8, !tbaa !4
  %4 = shl i64 %3, 1
  %5 = or i64 %4, 1
  %6 = inttoptr i64 %5 to ptr
  ret ptr %6
}

; Function Attrs: inlinehint nounwind uwtable
define internal zeroext i1 @lean_is_st(ptr noundef %0) #0 {
  %2 = alloca ptr, align 8
  store ptr %0, ptr %2, align 8, !tbaa !8
  %3 = load ptr, ptr %2, align 8, !tbaa !8
  %4 = getelementptr inbounds nuw %struct.lean_object, ptr %3, i32 0, i32 0
  %5 = load i32, ptr %4, align 4, !tbaa !15
  %6 = icmp sgt i32 %5, 0
  ret i1 %6
}

; Function Attrs: inlinehint nounwind uwtable
define internal ptr @lean_usize_to_nat(i64 noundef %0) #0 {
  %2 = alloca ptr, align 8
  %3 = alloca i64, align 8
  store i64 %0, ptr %3, align 8, !tbaa !4
  %4 = load i64, ptr %3, align 8, !tbaa !4
  %5 = icmp ule i64 %4, 9223372036854775807
  %6 = zext i1 %5 to i32
  %7 = sext i32 %6 to i64
  %8 = call i64 @llvm.expect.i64(i64 %7, i64 1)
  %9 = icmp ne i64 %8, 0
  br i1 %9, label %10, label %13

10:                                               ; preds = %1
  %11 = load i64, ptr %3, align 8, !tbaa !4
  %12 = call ptr @lean_box(i64 noundef %11)
  store ptr %12, ptr %2, align 8
  br label %16

13:                                               ; preds = %1
  %14 = load i64, ptr %3, align 8, !tbaa !4
  %15 = call ptr @lean_big_usize_to_nat(i64 noundef %14)
  store ptr %15, ptr %2, align 8
  br label %16

16:                                               ; preds = %13, %10
  %17 = load ptr, ptr %2, align 8
  ret ptr %17
}

; Function Attrs: alwaysinline nounwind uwtable
define internal void @lean_dec_ref(ptr noundef %0) #1 {
  %2 = alloca ptr, align 8
  store ptr %0, ptr %2, align 8, !tbaa !8
  %3 = load ptr, ptr %2, align 8, !tbaa !8
  %4 = getelementptr inbounds nuw %struct.lean_object, ptr %3, i32 0, i32 0
  %5 = load i32, ptr %4, align 4, !tbaa !15
  %6 = icmp sgt i32 %5, 1
  %7 = zext i1 %6 to i32
  %8 = sext i32 %7 to i64
  %9 = call i64 @llvm.expect.i64(i64 %8, i64 1)
  %10 = icmp ne i64 %9, 0
  br i1 %10, label %11, label %16

11:                                               ; preds = %1
  %12 = load ptr, ptr %2, align 8, !tbaa !8
  %13 = getelementptr inbounds nuw %struct.lean_object, ptr %12, i32 0, i32 0
  %14 = load i32, ptr %13, align 4, !tbaa !15
  %15 = add i32 %14, -1
  store i32 %15, ptr %13, align 4, !tbaa !15
  br label %24

16:                                               ; preds = %1
  %17 = load ptr, ptr %2, align 8, !tbaa !8
  %18 = getelementptr inbounds nuw %struct.lean_object, ptr %17, i32 0, i32 0
  %19 = load i32, ptr %18, align 4, !tbaa !15
  %20 = icmp ne i32 %19, 0
  br i1 %20, label %21, label %23

21:                                               ; preds = %16
  %22 = load ptr, ptr %2, align 8, !tbaa !8
  call void @lean_dec_ref_cold(ptr noundef %22)
  br label %23

23:                                               ; preds = %21, %16
  br label %24

24:                                               ; preds = %23, %11
  ret void
}

; Function Attrs: inlinehint nounwind uwtable
define internal void @lean_inc_ref(ptr noundef %0) #0 {
  %2 = alloca ptr, align 8
  store ptr %0, ptr %2, align 8, !tbaa !8
  %3 = load ptr, ptr %2, align 8, !tbaa !8
  %4 = call zeroext i1 @lean_is_st(ptr noundef %3)
  %5 = zext i1 %4 to i64
  %6 = call i64 @llvm.expect.i64(i64 %5, i64 1)
  %7 = icmp ne i64 %6, 0
  br i1 %7, label %8, label %13

8:                                                ; preds = %1
  %9 = load ptr, ptr %2, align 8, !tbaa !8
  %10 = getelementptr inbounds nuw %struct.lean_object, ptr %9, i32 0, i32 0
  %11 = load i32, ptr %10, align 4, !tbaa !15
  %12 = add i32 %11, 1
  store i32 %12, ptr %10, align 4, !tbaa !15
  br label %21

13:                                               ; preds = %1
  %14 = load ptr, ptr %2, align 8, !tbaa !8
  %15 = getelementptr inbounds nuw %struct.lean_object, ptr %14, i32 0, i32 0
  %16 = load i32, ptr %15, align 4, !tbaa !15
  %17 = icmp ne i32 %16, 0
  br i1 %17, label %18, label %20

18:                                               ; preds = %13
  %19 = load ptr, ptr %2, align 8, !tbaa !8
  call void @lean_inc_ref_cold(ptr noundef %19)
  br label %20

20:                                               ; preds = %18, %13
  br label %21

21:                                               ; preds = %20, %8
  ret void
}

; Function Attrs: alwaysinline nounwind uwtable
define internal zeroext i1 @lean_is_scalar(ptr noundef %0) #1 {
  %2 = alloca ptr, align 8
  store ptr %0, ptr %2, align 8, !tbaa !8
  %3 = load ptr, ptr %2, align 8, !tbaa !8
  %4 = ptrtoint ptr %3 to i64
  %5 = and i64 %4, 1
  %6 = icmp eq i64 %5, 1
  ret i1 %6
}

; Function Attrs: inlinehint nounwind uwtable
define internal ptr @lean_unsigned_to_nat(i32 noundef %0) #0 {
  %2 = alloca i32, align 4
  store i32 %0, ptr %2, align 4, !tbaa !13
  %3 = load i32, ptr %2, align 4, !tbaa !13
  %4 = zext i32 %3 to i64
  %5 = call ptr @lean_usize_to_nat(i64 noundef %4)
  ret ptr %5
}

; Function Attrs: alwaysinline nounwind uwtable
define internal void @lean_dec(ptr noundef %0) #1 {
  %2 = alloca ptr, align 8
  store ptr %0, ptr %2, align 8, !tbaa !8
  %3 = load ptr, ptr %2, align 8, !tbaa !8
  %4 = call zeroext i1 @lean_is_scalar(ptr noundef %3)
  br i1 %4, label %7, label %5

5:                                                ; preds = %1
  %6 = load ptr, ptr %2, align 8, !tbaa !8
  call void @lean_dec_ref(ptr noundef %6)
  br label %7

7:                                                ; preds = %5, %1
  ret void
}

; Function Attrs: alwaysinline nounwind uwtable
define internal void @lean_inc(ptr noundef %0) #1 {
  %2 = alloca ptr, align 8
  store ptr %0, ptr %2, align 8, !tbaa !8
  %3 = load ptr, ptr %2, align 8, !tbaa !8
  %4 = call zeroext i1 @lean_is_scalar(ptr noundef %3)
  br i1 %4, label %7, label %5

5:                                                ; preds = %1
  %6 = load ptr, ptr %2, align 8, !tbaa !8
  call void @lean_inc_ref(ptr noundef %6)
  br label %7

7:                                                ; preds = %5, %1
  ret void
}

; Function Attrs: nounwind uwtable
define ptr @l___private_Lean_Elab_Declaration_0__Lean_Elab_Command_setDefName(ptr noundef %0, ptr noundef %1) #2 {
  %3 = alloca ptr, align 8
  %4 = alloca ptr, align 8
  %5 = alloca ptr, align 8
  %6 = alloca i8, align 1
  %7 = alloca i8, align 1
  %8 = alloca i32, align 4
  %9 = alloca ptr, align 8
  %10 = alloca ptr, align 8
  %11 = alloca ptr, align 8
  %12 = alloca ptr, align 8
  %13 = alloca i8, align 1
  %14 = alloca ptr, align 8
  %15 = alloca ptr, align 8
  %16 = alloca ptr, align 8
  %17 = alloca ptr, align 8
  %18 = alloca ptr, align 8
  %19 = alloca ptr, align 8
  %20 = alloca ptr, align 8
  %21 = alloca ptr, align 8
  %22 = alloca ptr, align 8
  %23 = alloca ptr, align 8
  %24 = alloca ptr, align 8
  %25 = alloca ptr, align 8
  %26 = alloca ptr, align 8
  %27 = alloca ptr, align 8
  store ptr %0, ptr %4, align 8, !tbaa !8
  store ptr %1, ptr %5, align 8, !tbaa !8
  br label %28

28:                                               ; preds = %2
  call void @llvm.lifetime.start.p0(i64 1, ptr %6) #7
  %29 = load ptr, ptr %4, align 8, !tbaa !8
  call void @lean_inc(ptr noundef %29)
  %30 = load ptr, ptr %4, align 8, !tbaa !8
  %31 = call zeroext i8 @l___private_Lean_Elab_Declaration_0__Lean_Elab_Command_isNamedDef(ptr noundef %30)
  store i8 %31, ptr %6, align 1, !tbaa !12
  %32 = load i8, ptr %6, align 1, !tbaa !12
  %33 = zext i8 %32 to i32
  %34 = icmp eq i32 %33, 0
  br i1 %34, label %35, label %91

35:                                               ; preds = %28
  call void @llvm.lifetime.start.p0(i64 1, ptr %7) #7
  %36 = load ptr, ptr %4, align 8, !tbaa !8
  call void @lean_inc(ptr noundef %36)
  %37 = load ptr, ptr %4, align 8, !tbaa !8
  %38 = call zeroext i8 @l___private_Lean_Elab_Declaration_0__Lean_Elab_Command_isInstanceDef(ptr noundef %37)
  store i8 %38, ptr %7, align 1, !tbaa !12
  %39 = load i8, ptr %7, align 1, !tbaa !12
  %40 = zext i8 %39 to i32
  %41 = icmp eq i32 %40, 0
  br i1 %41, label %42, label %45

42:                                               ; preds = %35
  %43 = load ptr, ptr %5, align 8, !tbaa !8
  call void @lean_dec(ptr noundef %43)
  %44 = load ptr, ptr %4, align 8, !tbaa !8
  store ptr %44, ptr %3, align 8
  store i32 1, ptr %8, align 4
  br label %90

45:                                               ; preds = %35
  call void @llvm.lifetime.start.p0(i64 8, ptr %9) #7
  call void @llvm.lifetime.start.p0(i64 8, ptr %10) #7
  call void @llvm.lifetime.start.p0(i64 8, ptr %11) #7
  call void @llvm.lifetime.start.p0(i64 8, ptr %12) #7
  call void @llvm.lifetime.start.p0(i64 1, ptr %13) #7
  %46 = call ptr @lean_unsigned_to_nat(i32 noundef 1)
  store ptr %46, ptr %9, align 8, !tbaa !8
  %47 = load ptr, ptr %4, align 8, !tbaa !8
  %48 = load ptr, ptr %9, align 8, !tbaa !8
  %49 = call ptr @l_Lean_Syntax_getArg(ptr noundef %47, ptr noundef %48)
  store ptr %49, ptr %10, align 8, !tbaa !8
  %50 = call ptr @lean_unsigned_to_nat(i32 noundef 3)
  store ptr %50, ptr %11, align 8, !tbaa !8
  %51 = load ptr, ptr %10, align 8, !tbaa !8
  %52 = load ptr, ptr %11, align 8, !tbaa !8
  %53 = call ptr @l_Lean_Syntax_getArg(ptr noundef %51, ptr noundef %52)
  store ptr %53, ptr %12, align 8, !tbaa !8
  %54 = load ptr, ptr %12, align 8, !tbaa !8
  %55 = call zeroext i8 @l_Lean_Syntax_isNone(ptr noundef %54)
  store i8 %55, ptr %13, align 1, !tbaa !12
  %56 = load i8, ptr %13, align 1, !tbaa !12
  %57 = zext i8 %56 to i32
  %58 = icmp eq i32 %57, 0
  br i1 %58, label %59, label %80

59:                                               ; preds = %45
  call void @llvm.lifetime.start.p0(i64 8, ptr %14) #7
  call void @llvm.lifetime.start.p0(i64 8, ptr %15) #7
  call void @llvm.lifetime.start.p0(i64 8, ptr %16) #7
  call void @llvm.lifetime.start.p0(i64 8, ptr %17) #7
  call void @llvm.lifetime.start.p0(i64 8, ptr %18) #7
  call void @llvm.lifetime.start.p0(i64 8, ptr %19) #7
  %60 = call ptr @lean_unsigned_to_nat(i32 noundef 0)
  store ptr %60, ptr %14, align 8, !tbaa !8
  %61 = load ptr, ptr %12, align 8, !tbaa !8
  %62 = load ptr, ptr %14, align 8, !tbaa !8
  %63 = call ptr @l_Lean_Syntax_getArg(ptr noundef %61, ptr noundef %62)
  store ptr %63, ptr %15, align 8, !tbaa !8
  %64 = load ptr, ptr %15, align 8, !tbaa !8
  %65 = load ptr, ptr %5, align 8, !tbaa !8
  %66 = call ptr @l___private_Lean_Elab_Declaration_0__Lean_Elab_Command_setDeclIdName(ptr noundef %64, ptr noundef %65)
  store ptr %66, ptr %16, align 8, !tbaa !8
  %67 = load ptr, ptr %12, align 8, !tbaa !8
  %68 = load ptr, ptr %14, align 8, !tbaa !8
  %69 = load ptr, ptr %16, align 8, !tbaa !8
  %70 = call ptr @l_Lean_Syntax_setArg(ptr noundef %67, ptr noundef %68, ptr noundef %69)
  store ptr %70, ptr %17, align 8, !tbaa !8
  %71 = load ptr, ptr %10, align 8, !tbaa !8
  %72 = load ptr, ptr %11, align 8, !tbaa !8
  %73 = load ptr, ptr %17, align 8, !tbaa !8
  %74 = call ptr @l_Lean_Syntax_setArg(ptr noundef %71, ptr noundef %72, ptr noundef %73)
  store ptr %74, ptr %18, align 8, !tbaa !8
  %75 = load ptr, ptr %4, align 8, !tbaa !8
  %76 = load ptr, ptr %9, align 8, !tbaa !8
  %77 = load ptr, ptr %18, align 8, !tbaa !8
  %78 = call ptr @l_Lean_Syntax_setArg(ptr noundef %75, ptr noundef %76, ptr noundef %77)
  store ptr %78, ptr %19, align 8, !tbaa !8
  %79 = load ptr, ptr %19, align 8, !tbaa !8
  store ptr %79, ptr %3, align 8
  store i32 1, ptr %8, align 4
  call void @llvm.lifetime.end.p0(i64 8, ptr %19) #7
  call void @llvm.lifetime.end.p0(i64 8, ptr %18) #7
  call void @llvm.lifetime.end.p0(i64 8, ptr %17) #7
  call void @llvm.lifetime.end.p0(i64 8, ptr %16) #7
  call void @llvm.lifetime.end.p0(i64 8, ptr %15) #7
  call void @llvm.lifetime.end.p0(i64 8, ptr %14) #7
  br label %89

80:                                               ; preds = %45
  call void @llvm.lifetime.start.p0(i64 8, ptr %20) #7
  call void @llvm.lifetime.start.p0(i64 8, ptr %21) #7
  %81 = load ptr, ptr %12, align 8, !tbaa !8
  call void @lean_dec(ptr noundef %81)
  %82 = load ptr, ptr %10, align 8, !tbaa !8
  call void @lean_dec(ptr noundef %82)
  %83 = load ptr, ptr %5, align 8, !tbaa !8
  call void @lean_dec(ptr noundef %83)
  %84 = load ptr, ptr %4, align 8, !tbaa !8
  call void @lean_dec(ptr noundef %84)
  %85 = load ptr, ptr @l___private_Lean_Elab_Declaration_0__Lean_Elab_Command_setDefName___closed__4, align 8, !tbaa !8
  store ptr %85, ptr %20, align 8, !tbaa !8
  %86 = load ptr, ptr %20, align 8, !tbaa !8
  %87 = call ptr @l_panic___at_Lean_Parser_SyntaxStack_back___spec__1(ptr noundef %86)
  store ptr %87, ptr %21, align 8, !tbaa !8
  %88 = load ptr, ptr %21, align 8, !tbaa !8
  store ptr %88, ptr %3, align 8
  store i32 1, ptr %8, align 4
  call void @llvm.lifetime.end.p0(i64 8, ptr %21) #7
  call void @llvm.lifetime.end.p0(i64 8, ptr %20) #7
  br label %89

89:                                               ; preds = %80, %59
  call void @llvm.lifetime.end.p0(i64 1, ptr %13) #7
  call void @llvm.lifetime.end.p0(i64 8, ptr %12) #7
  call void @llvm.lifetime.end.p0(i64 8, ptr %11) #7
  call void @llvm.lifetime.end.p0(i64 8, ptr %10) #7
  call void @llvm.lifetime.end.p0(i64 8, ptr %9) #7
  br label %90

90:                                               ; preds = %89, %42
  call void @llvm.lifetime.end.p0(i64 1, ptr %7) #7
  br label %111

91:                                               ; preds = %28
  call void @llvm.lifetime.start.p0(i64 8, ptr %22) #7
  call void @llvm.lifetime.start.p0(i64 8, ptr %23) #7
  call void @llvm.lifetime.start.p0(i64 8, ptr %24) #7
  call void @llvm.lifetime.start.p0(i64 8, ptr %25) #7
  call void @llvm.lifetime.start.p0(i64 8, ptr %26) #7
  call void @llvm.lifetime.start.p0(i64 8, ptr %27) #7
  %92 = call ptr @lean_unsigned_to_nat(i32 noundef 1)
  store ptr %92, ptr %22, align 8, !tbaa !8
  %93 = load ptr, ptr %4, align 8, !tbaa !8
  %94 = load ptr, ptr %22, align 8, !tbaa !8
  %95 = call ptr @l_Lean_Syntax_getArg(ptr noundef %93, ptr noundef %94)
  store ptr %95, ptr %23, align 8, !tbaa !8
  %96 = load ptr, ptr %23, align 8, !tbaa !8
  %97 = load ptr, ptr %22, align 8, !tbaa !8
  %98 = call ptr @l_Lean_Syntax_getArg(ptr noundef %96, ptr noundef %97)
  store ptr %98, ptr %24, align 8, !tbaa !8
  %99 = load ptr, ptr %24, align 8, !tbaa !8
  %100 = load ptr, ptr %5, align 8, !tbaa !8
  %101 = call ptr @l___private_Lean_Elab_Declaration_0__Lean_Elab_Command_setDeclIdName(ptr noundef %99, ptr noundef %100)
  store ptr %101, ptr %25, align 8, !tbaa !8
  %102 = load ptr, ptr %23, align 8, !tbaa !8
  %103 = load ptr, ptr %22, align 8, !tbaa !8
  %104 = load ptr, ptr %25, align 8, !tbaa !8
  %105 = call ptr @l_Lean_Syntax_setArg(ptr noundef %102, ptr noundef %103, ptr noundef %104)
  store ptr %105, ptr %26, align 8, !tbaa !8
  %106 = load ptr, ptr %4, align 8, !tbaa !8
  %107 = load ptr, ptr %22, align 8, !tbaa !8
  %108 = load ptr, ptr %26, align 8, !tbaa !8
  %109 = call ptr @l_Lean_Syntax_setArg(ptr noundef %106, ptr noundef %107, ptr noundef %108)
  store ptr %109, ptr %27, align 8, !tbaa !8
  %110 = load ptr, ptr %27, align 8, !tbaa !8
  store ptr %110, ptr %3, align 8
  store i32 1, ptr %8, align 4
  call void @llvm.lifetime.end.p0(i64 8, ptr %27) #7
  call void @llvm.lifetime.end.p0(i64 8, ptr %26) #7
  call void @llvm.lifetime.end.p0(i64 8, ptr %25) #7
  call void @llvm.lifetime.end.p0(i64 8, ptr %24) #7
  call void @llvm.lifetime.end.p0(i64 8, ptr %23) #7
  call void @llvm.lifetime.end.p0(i64 8, ptr %22) #7
  br label %111

111:                                              ; preds = %91, %90
  call void @llvm.lifetime.end.p0(i64 1, ptr %6) #7
  %112 = load ptr, ptr %3, align 8
  ret ptr %112
}