; Function Attrs: nounwind uwtable
define ptr @l___private_Lean_Elab_Declaration_0__Lean_Elab_Command_setDefName(ptr noundef %0, ptr noundef %1) local_unnamed_addr #0 {
  %3 = ptrtoint ptr %0 to i64
  %4 = and i64 %3, 1
  %.not = icmp eq i64 %4, 0
  br i1 %.not, label %5, label %lean_inc.exit47.thread

5:                                                ; preds = %2
  %.val.i = load i32, ptr %0, align 4, !tbaa !4
  %6 = icmp sgt i32 %.val.i, 0
  br i1 %6, label %7, label %9, !prof !11

7:                                                ; preds = %5
  %8 = add nuw i32 %.val.i, 1
  store i32 %8, ptr %0, align 4, !tbaa !4
  br label %lean_inc.exit47

9:                                                ; preds = %5
  %.not.i60 = icmp eq i32 %.val.i, 0
  br i1 %.not.i60, label %lean_inc.exit47, label %10

10:                                               ; preds = %9
  tail call void @lean_inc_ref_cold(ptr noundef nonnull %0) #6
  br label %lean_inc.exit47

lean_inc.exit47:                                  ; preds = %10, %9, %7
  %11 = tail call zeroext i8 @l___private_Lean_Elab_Declaration_0__Lean_Elab_Command_isNamedDef(ptr noundef nonnull %0)
  %12 = icmp eq i8 %11, 0
  br i1 %12, label %15, label %81

lean_inc.exit47.thread:                           ; preds = %2
  %13 = tail call zeroext i8 @l___private_Lean_Elab_Declaration_0__Lean_Elab_Command_isNamedDef(ptr noundef %0)
  %14 = icmp eq i8 %13, 0
  br i1 %14, label %lean_inc.exit, label %81

15:                                               ; preds = %lean_inc.exit47
  %.val.i61 = load i32, ptr %0, align 4, !tbaa !4
  %16 = icmp sgt i32 %.val.i61, 0
  br i1 %16, label %17, label %19, !prof !11

17:                                               ; preds = %15
  %18 = add nuw i32 %.val.i61, 1
  store i32 %18, ptr %0, align 4, !tbaa !4
  br label %lean_inc.exit

19:                                               ; preds = %15
  %.not.i62 = icmp eq i32 %.val.i61, 0
  br i1 %.not.i62, label %lean_inc.exit, label %20

20:                                               ; preds = %19
  tail call void @lean_inc_ref_cold(ptr noundef nonnull %0) #6
  br label %lean_inc.exit

lean_inc.exit:                                    ; preds = %lean_inc.exit47.thread, %20, %19, %17
  %21 = tail call zeroext i8 @l___private_Lean_Elab_Declaration_0__Lean_Elab_Command_isInstanceDef(ptr noundef %0)
  %22 = icmp eq i8 %21, 0
  br i1 %22, label %23, label %33

23:                                               ; preds = %lean_inc.exit
  %24 = ptrtoint ptr %1 to i64
  %25 = and i64 %24, 1
  %.not67 = icmp eq i64 %25, 0
  br i1 %.not67, label %26, label %lean_dec.exit51

26:                                               ; preds = %23
  %27 = load i32, ptr %1, align 4, !tbaa !4
  %28 = icmp sgt i32 %27, 1
  br i1 %28, label %29, label %31, !prof !11

29:                                               ; preds = %26
  %30 = add nsw i32 %27, -1
  store i32 %30, ptr %1, align 4, !tbaa !4
  br label %lean_dec.exit51

31:                                               ; preds = %26
  %.not.i = icmp eq i32 %27, 0
  br i1 %.not.i, label %lean_dec.exit51, label %32

32:                                               ; preds = %31
  tail call void @lean_dec_ref_cold(ptr noundef nonnull %1) #6
  br label %lean_dec.exit51

33:                                               ; preds = %lean_inc.exit
  %34 = tail call ptr @l_Lean_Syntax_getArg(ptr noundef %0, ptr noundef nonnull inttoptr (i64 3 to ptr)) #6
  %35 = tail call ptr @l_Lean_Syntax_getArg(ptr noundef %34, ptr noundef nonnull inttoptr (i64 7 to ptr)) #6
  %36 = tail call zeroext i8 @l_Lean_Syntax_isNone(ptr noundef %35) #6
  %37 = icmp eq i8 %36, 0
  br i1 %37, label %38, label %44

38:                                               ; preds = %33
  %39 = tail call ptr @l_Lean_Syntax_getArg(ptr noundef %35, ptr noundef nonnull inttoptr (i64 1 to ptr)) #6
  %40 = tail call ptr @l___private_Lean_Elab_Declaration_0__Lean_Elab_Command_setDeclIdName(ptr noundef %39, ptr noundef %1)
  %41 = tail call ptr @l_Lean_Syntax_setArg(ptr noundef %35, ptr noundef nonnull inttoptr (i64 1 to ptr), ptr noundef %40) #6
  %42 = tail call ptr @l_Lean_Syntax_setArg(ptr noundef %34, ptr noundef nonnull inttoptr (i64 7 to ptr), ptr noundef %41) #6
  %43 = tail call ptr @l_Lean_Syntax_setArg(ptr noundef %0, ptr noundef nonnull inttoptr (i64 3 to ptr), ptr noundef %42) #6
  br label %lean_dec.exit51

44:                                               ; preds = %33
  %45 = ptrtoint ptr %35 to i64
  %46 = and i64 %45, 1
  %.not64 = icmp eq i64 %46, 0
  br i1 %.not64, label %47, label %lean_dec.exit50

47:                                               ; preds = %44
  %48 = load i32, ptr %35, align 4, !tbaa !4
  %49 = icmp sgt i32 %48, 1
  br i1 %49, label %50, label %52, !prof !11

50:                                               ; preds = %47
  %51 = add nsw i32 %48, -1
  store i32 %51, ptr %35, align 4, !tbaa !4
  br label %lean_dec.exit50

52:                                               ; preds = %47
  %.not.i52 = icmp eq i32 %48, 0
  br i1 %.not.i52, label %lean_dec.exit50, label %53

53:                                               ; preds = %52
  tail call void @lean_dec_ref_cold(ptr noundef nonnull %35) #6
  br label %lean_dec.exit50

lean_dec.exit50:                                  ; preds = %53, %52, %50, %44
  %54 = ptrtoint ptr %34 to i64
  %55 = and i64 %54, 1
  %.not65 = icmp eq i64 %55, 0
  br i1 %.not65, label %56, label %lean_dec.exit49

56:                                               ; preds = %lean_dec.exit50
  %57 = load i32, ptr %34, align 4, !tbaa !4
  %58 = icmp sgt i32 %57, 1
  br i1 %58, label %59, label %61, !prof !11

59:                                               ; preds = %56
  %60 = add nsw i32 %57, -1
  store i32 %60, ptr %34, align 4, !tbaa !4
  br label %lean_dec.exit49

61:                                               ; preds = %56
  %.not.i54 = icmp eq i32 %57, 0
  br i1 %.not.i54, label %lean_dec.exit49, label %62

62:                                               ; preds = %61
  tail call void @lean_dec_ref_cold(ptr noundef nonnull %34) #6
  br label %lean_dec.exit49

lean_dec.exit49:                                  ; preds = %62, %61, %59, %lean_dec.exit50
  %63 = ptrtoint ptr %1 to i64
  %64 = and i64 %63, 1
  %.not66 = icmp eq i64 %64, 0
  br i1 %.not66, label %65, label %lean_dec.exit48

65:                                               ; preds = %lean_dec.exit49
  %66 = load i32, ptr %1, align 4, !tbaa !4
  %67 = icmp sgt i32 %66, 1
  br i1 %67, label %68, label %70, !prof !11

68:                                               ; preds = %65
  %69 = add nsw i32 %66, -1
  store i32 %69, ptr %1, align 4, !tbaa !4
  br label %lean_dec.exit48

70:                                               ; preds = %65
  %.not.i56 = icmp eq i32 %66, 0
  br i1 %.not.i56, label %lean_dec.exit48, label %71

71:                                               ; preds = %70
  tail call void @lean_dec_ref_cold(ptr noundef nonnull %1) #6
  br label %lean_dec.exit48

lean_dec.exit48:                                  ; preds = %71, %70, %68, %lean_dec.exit49
  br i1 %.not, label %72, label %lean_dec.exit

72:                                               ; preds = %lean_dec.exit48
  %73 = load i32, ptr %0, align 4, !tbaa !4
  %74 = icmp sgt i32 %73, 1
  br i1 %74, label %75, label %77, !prof !11

75:                                               ; preds = %72
  %76 = add nsw i32 %73, -1
  store i32 %76, ptr %0, align 4, !tbaa !4
  br label %lean_dec.exit

77:                                               ; preds = %72
  %.not.i58 = icmp eq i32 %73, 0
  br i1 %.not.i58, label %lean_dec.exit, label %78

78:                                               ; preds = %77
  tail call void @lean_dec_ref_cold(ptr noundef nonnull %0) #6
  br label %lean_dec.exit

lean_dec.exit:                                    ; preds = %78, %77, %75, %lean_dec.exit48
  %79 = load ptr, ptr @l___private_Lean_Elab_Declaration_0__Lean_Elab_Command_setDefName___closed__4, align 8, !tbaa !9
  %80 = tail call ptr @l_panic___at_Lean_Parser_SyntaxStack_back___spec__1(ptr noundef %79) #6
  br label %lean_dec.exit51

81:                                               ; preds = %lean_inc.exit47.thread, %lean_inc.exit47
  %82 = tail call ptr @l_Lean_Syntax_getArg(ptr noundef %0, ptr noundef nonnull inttoptr (i64 3 to ptr)) #6
  %83 = tail call ptr @l_Lean_Syntax_getArg(ptr noundef %82, ptr noundef nonnull inttoptr (i64 3 to ptr)) #6
  %84 = tail call ptr @l___private_Lean_Elab_Declaration_0__Lean_Elab_Command_setDeclIdName(ptr noundef %83, ptr noundef %1)
  %85 = tail call ptr @l_Lean_Syntax_setArg(ptr noundef %82, ptr noundef nonnull inttoptr (i64 3 to ptr), ptr noundef %84) #6
  %86 = tail call ptr @l_Lean_Syntax_setArg(ptr noundef %0, ptr noundef nonnull inttoptr (i64 3 to ptr), ptr noundef %85) #6
  br label %lean_dec.exit51

lean_dec.exit51:                                  ; preds = %23, %29, %31, %32, %lean_dec.exit, %38, %81
  %.2 = phi ptr [ %86, %81 ], [ %43, %38 ], [ %80, %lean_dec.exit ], [ %0, %32 ], [ %0, %31 ], [ %0, %29 ], [ %0, %23 ]
  ret ptr %.2
}